; Function Attrs: mustprogress nofree norecurse nosync nounwind willreturn memory(argmem: readwrite) uwtable
define hidden noundef i32 @_ZN4ncnn15Pooling_x86_fma15create_pipelineERKNS_6OptionE(ptr noundef nonnull align 8 captures(none) dereferenceable(268) %0, ptr nonnull readnone align 8 captures(none) %1) unnamed_addr #3 align 2 {
  %3 = getelementptr inbounds nuw i8, ptr %0, i64 256
  %4 = load i32, ptr %3, align 8, !tbaa !4
  %.not = icmp eq i32 %4, 0
  br i1 %.not, label %8, label %5

5:                                                ; preds = %2
  %6 = getelementptr inbounds nuw i8, ptr %0, i64 11
  %7 = getelementptr inbounds nuw i8, ptr %0, i64 16
  store i8 0, ptr %7, align 8, !tbaa !26
  store i32 0, ptr %6, align 1
  br label %8

8:                                                ; preds = %5, %2
  ret i32 0
}